; Function Attrs: nounwind uwtable
define internal fastcc ptr @findFunction(ptr noundef %0, ptr noundef %1, ptr noundef %2) unnamed_addr #0 {
  %4 = alloca [256 x i8], align 16
  %5 = tail call ptr @dlsym(ptr noundef %1, ptr noundef %2) #4
  %6 = icmp eq ptr %5, null
  br i1 %6, label %7, label %throwNullPointerException.exit

7:                                                ; preds = %3
  %8 = call i32 (ptr, i64, ptr, ...) @snprintf(ptr noundef nonnull dereferenceable(1) %4, i64 noundef 256, ptr noundef nonnull @.str.13, ptr noundef %2) #4
  %9 = load ptr, ptr %0, align 8
  %10 = getelementptr inbounds i8, ptr %9, i64 48
  %11 = load ptr, ptr %10, align 8
  %12 = tail call ptr %11(ptr noundef nonnull %0, ptr noundef nonnull @.str.11) #4
  %.not.i.i = icmp eq ptr %12, null
  br i1 %.not.i.i, label %throwNullPointerException.exit, label %13

13:                                               ; preds = %7
  %14 = load ptr, ptr %0, align 8
  %15 = getelementptr inbounds i8, ptr %14, i64 112
  %16 = load ptr, ptr %15, align 8
  %17 = call i32 %16(ptr noundef nonnull %0, ptr noundef nonnull %12, ptr noundef nonnull %4) #4
  br label %throwNullPointerException.exit

throwNullPointerException.exit:                   ; preds = %13, %7, %3
  ret ptr %5
}